target datalayout = "e-m:e-p270:32:32-p271:32:32-p272:64:64-i64:64-i128:128-f80:128-n8:16:32:64-S128"
target triple = "x86_64-pc-linux-gnu"

%struct.EC_PKEY_CTX = type { ptr, ptr, ptr, i8, i8, ptr, ptr, i64, i64 }
%struct.evp_pkey_ctx_st = type { i32, ptr, ptr, ptr, ptr, %union.anon, %struct.anon.4, ptr, ptr, ptr, i32, i32, ptr, ptr, ptr, ptr, ptr, i8, ptr }
%union.anon = type { %struct.anon.0 }
%struct.anon.0 = type { ptr, ptr }
%struct.anon.4 = type { ptr, ptr, i64, i8 }

@.str = private unnamed_addr constant [32 x i8] c"../openssl/crypto/ec/ec_pmeth.c\00", align 1

; Function Attrs: nounwind uwtable
define internal i32 @pkey_ec_init(ptr noundef %0) #0 {
  %2 = alloca i32, align 4
  %3 = alloca ptr, align 8
  %4 = alloca ptr, align 8
  %5 = alloca i32, align 4
  store ptr %0, ptr %3, align 8, !tbaa !3
  call void @llvm.lifetime.start.p0(i64 8, ptr %4) #7
  %6 = call noalias ptr @CRYPTO_zalloc(i64 noundef 64, ptr noundef @.str, i32 noundef 51)
  store ptr %6, ptr %4, align 8, !tbaa !8
  %7 = icmp eq ptr %6, null
  br i1 %7, label %8, label %9

8:                                                ; preds = %1
  store i32 0, ptr %2, align 4
  store i32 1, ptr %5, align 4
  br label %17

9:                                                ; preds = %1
  %10 = load ptr, ptr %4, align 8, !tbaa !8
  %11 = getelementptr inbounds nuw %struct.EC_PKEY_CTX, ptr %10, i32 0, i32 3
  store i8 -1, ptr %11, align 8, !tbaa !9
  %12 = load ptr, ptr %4, align 8, !tbaa !8
  %13 = getelementptr inbounds nuw %struct.EC_PKEY_CTX, ptr %12, i32 0, i32 4
  store i8 1, ptr %13, align 1, !tbaa !16
  %14 = load ptr, ptr %4, align 8, !tbaa !8
  %15 = load ptr, ptr %3, align 8, !tbaa !3
  %16 = getelementptr inbounds nuw %struct.evp_pkey_ctx_st, ptr %15, i32 0, i32 16
  store ptr %14, ptr %16, align 8, !tbaa !17
  store i32 1, ptr %2, align 4
  store i32 1, ptr %5, align 4
  br label %17

17:                                               ; preds = %9, %8
  call void @llvm.lifetime.end.p0(i64 8, ptr %4) #7
  %18 = load i32, ptr %2, align 4
  ret i32 %18
}