; Function Attrs: nounwind uwtable
define internal range(i32 0, 2) i32 @pkey_ec_init(ptr noundef writeonly captures(none) %0) #1 {
  %2 = tail call noalias ptr @CRYPTO_zalloc(i64 noundef 64, ptr noundef nonnull @.str, i32 noundef 51) #6
  %3 = icmp eq ptr %2, null
  br i1 %3, label %8, label %4

4:                                                ; preds = %1
  %5 = getelementptr inbounds nuw i8, ptr %2, i64 24
  store i8 -1, ptr %5, align 8, !tbaa !3
  %6 = getelementptr inbounds nuw i8, ptr %2, i64 25
  store i8 1, ptr %6, align 1, !tbaa !13
  %7 = getelementptr inbounds nuw i8, ptr %0, i64 152
  store ptr %2, ptr %7, align 8, !tbaa !14
  br label %8

8:                                                ; preds = %1, %4
  %.0 = phi i32 [ 1, %4 ], [ 0, %1 ]
  ret i32 %.0
}